; Function Attrs: mustprogress nofree norecurse nosync nounwind willreturn memory(read, inaccessiblemem: none) uwtable
define hidden noundef zeroext i1 @_ZNK2cv17QRCodeEncoderImpl9isNumericERKNSt7__cxx1112basic_stringIcSt11char_traitsIcESaIcEEE(ptr noundef nonnull readnone align 8 captures(none) dereferenceable(384) %0, ptr noundef nonnull readonly align 8 captures(none) dereferenceable(32) %1) local_unnamed_addr #7 align 2 {
  %3 = getelementptr inbounds nuw i8, ptr %1, i64 8
  %4 = load i64, ptr %3, align 8, !tbaa !21
  %5 = icmp eq i64 %4, 0
  br i1 %5, label %._crit_edge, label %.lr.ph

.lr.ph:                                           ; preds = %2
  %6 = load ptr, ptr %1, align 8, !tbaa !15
  br label %7

7:                                                ; preds = %7, %.lr.ph
  %.0810 = phi i64 [ 0, %.lr.ph ], [ %11, %7 ]
  %8 = getelementptr inbounds nuw i8, ptr %6, i64 %.0810
  %9 = load i8, ptr %8, align 1, !tbaa !57
  %10 = add i8 %9, -48
  %or.cond = icmp ult i8 %10, 10
  %11 = add nuw i64 %.0810, 1
  %exitcond.not = icmp ne i64 %11, %4
  %or.cond13.not = select i1 %or.cond, i1 %exitcond.not, i1 false
  br i1 %or.cond13.not, label %7, label %._crit_edge, !llvm.loop !56

._crit_edge:                                      ; preds = %7, %2
  %.lcssa = phi i1 [ true, %2 ], [ %or.cond, %7 ]
  ret i1 %.lcssa
}